; Function Attrs: nounwind sspstrong uwtable
define internal fastcc void @ractor_selector_wait_cleaup(ptr noundef %0, ptr noundef captures(none) %1) unnamed_addr #0 {
  %3 = getelementptr inbounds nuw i8, ptr %0, i64 40
  tail call void @rb_native_mutex_lock(ptr noundef nonnull %3) #19
  %.val5 = load i32, ptr %1, align 8, !tbaa !100
  %4 = icmp eq i32 %.val5, 8
  br i1 %4, label %.lr.ph, label %._crit_edge

.lr.ph:                                           ; preds = %2, %.lr.ph
  tail call void @rb_thread_sleep(i32 noundef 0) #19
  %.val = load i32, ptr %1, align 8, !tbaa !100
  %5 = icmp eq i32 %.val, 8
  br i1 %5, label %.lr.ph, label %._crit_edge, !llvm.loop !272

._crit_edge:                                      ; preds = %.lr.ph, %2
  store i32 6, ptr %1, align 8, !tbaa !100
  tail call void @rb_native_mutex_unlock(ptr noundef nonnull %3) #19
  ret void
}